; Function Attrs: nounwind uwtable
define dso_local range(i32 0, 2) i32 @KeccakWidth1600_SpongeInitialize(ptr noundef %0, i32 noundef %1, i32 noundef %2) local_unnamed_addr #0 {
  %4 = add i32 %2, %1
  %.not = icmp eq i32 %4, 1600
  br i1 %.not, label %5, label %12

5:                                                ; preds = %3
  %6 = add i32 %1, -1
  %or.cond = icmp ult i32 %6, 1600
  %7 = and i32 %1, 7
  %.not12 = icmp eq i32 %7, 0
  %or.cond13 = and i1 %or.cond, %.not12
  br i1 %or.cond13, label %8, label %12

8:                                                ; preds = %5
  tail call void @KeccakP1600_Initialize(ptr noundef %0) #3
  %9 = getelementptr inbounds nuw i8, ptr %0, i64 200
  store i32 %1, ptr %9, align 8
  %10 = getelementptr inbounds nuw i8, ptr %0, i64 204
  store i32 0, ptr %10, align 4
  %11 = getelementptr inbounds nuw i8, ptr %0, i64 208
  store i32 0, ptr %11, align 8
  br label %12

12:                                               ; preds = %5, %3, %8
  %.0 = phi i32 [ 0, %8 ], [ 1, %3 ], [ 1, %5 ]
  ret i32 %.0
}